; Function Attrs: mustprogress uwtable
define hidden void @_ZN6Assimp11COBImporter17ReadString_BinaryERNSt7__cxx1112basic_stringIcSt11char_traitsIcESaIcEEERNS_12StreamReaderILb0ELb0EEE(ptr nonnull readnone align 8 captures(none) %0, ptr noundef nonnull align 8 dereferenceable(32) %1, ptr noundef nonnull align 8 captures(none) dereferenceable(49) %2) local_unnamed_addr #0 align 2 personality ptr @__gxx_personality_v0 {
  %4 = getelementptr inbounds nuw i8, ptr %2, i64 24
  %5 = load ptr, ptr %4, align 8
  %6 = getelementptr inbounds nuw i8, ptr %5, i64 2
  %7 = getelementptr inbounds nuw i8, ptr %2, i64 40
  %8 = load ptr, ptr %7, align 8
  %9 = icmp ugt ptr %6, %8
  br i1 %9, label %10, label %_ZN6Assimp12StreamReaderILb0ELb0EE5GetI2Ev.exit

10:                                               ; preds = %3
  %11 = tail call ptr @__cxa_allocate_exception(i64 16) #27
  invoke void @_ZN17DeadlyImportErrorC2EPKc(ptr noundef nonnull align 8 dereferenceable(16) %11, ptr noundef nonnull @.str.105)
          to label %12 unwind label %13

12:                                               ; preds = %10
  tail call void @__cxa_throw(ptr nonnull %11, ptr nonnull @_ZTI17DeadlyImportError, ptr nonnull @_ZNSt13runtime_errorD2Ev) #28
  unreachable

common.resume:                                    ; preds = %28, %13
  %.sink = phi ptr [ %26, %28 ], [ %11, %13 ]
  %common.resume.op = phi { ptr, i32 } [ %29, %28 ], [ %14, %13 ]
  tail call void @__cxa_free_exception(ptr nonnull %.sink) #27
  resume { ptr, i32 } %common.resume.op

13:                                               ; preds = %10
  %14 = landingpad { ptr, i32 }
          cleanup
  br label %common.resume

_ZN6Assimp12StreamReaderILb0ELb0EE5GetI2Ev.exit:  ; preds = %3
  %15 = load i16, ptr %5, align 1
  store ptr %6, ptr %4, align 8
  %16 = sext i16 %15 to i64
  tail call void @_ZNSt7__cxx1112basic_stringIcSt11char_traitsIcESaIcEE6resizeEmc(ptr noundef nonnull align 8 dereferenceable(32) %1, i64 noundef %16, i8 noundef signext 0)
  %17 = load ptr, ptr %1, align 8
  %18 = getelementptr inbounds nuw i8, ptr %1, i64 8
  %19 = load i64, ptr %18, align 8
  %20 = getelementptr inbounds nuw i8, ptr %17, i64 %19
  %.not10 = icmp samesign eq i64 %19, 0
  br i1 %.not10, label %._crit_edge, label %.lr.ph

._crit_edge:                                      ; preds = %_ZN6Assimp12StreamReaderILb0ELb0EE5GetI1Ev.exit, %_ZN6Assimp12StreamReaderILb0ELb0EE5GetI2Ev.exit
  ret void

.lr.ph:                                           ; preds = %_ZN6Assimp12StreamReaderILb0ELb0EE5GetI2Ev.exit, %_ZN6Assimp12StreamReaderILb0ELb0EE5GetI1Ev.exit
  %.sroa.07.011 = phi ptr [ %31, %_ZN6Assimp12StreamReaderILb0ELb0EE5GetI1Ev.exit ], [ %17, %_ZN6Assimp12StreamReaderILb0ELb0EE5GetI2Ev.exit ]
  %21 = load ptr, ptr %4, align 8
  %22 = getelementptr inbounds nuw i8, ptr %21, i64 1
  %23 = load ptr, ptr %7, align 8
  %24 = icmp ugt ptr %22, %23
  br i1 %24, label %25, label %_ZN6Assimp12StreamReaderILb0ELb0EE5GetI1Ev.exit

25:                                               ; preds = %.lr.ph
  %26 = tail call ptr @__cxa_allocate_exception(i64 16) #27
  invoke void @_ZN17DeadlyImportErrorC2EPKc(ptr noundef nonnull align 8 dereferenceable(16) %26, ptr noundef nonnull @.str.105)
          to label %27 unwind label %28

27:                                               ; preds = %25
  tail call void @__cxa_throw(ptr nonnull %26, ptr nonnull @_ZTI17DeadlyImportError, ptr nonnull @_ZNSt13runtime_errorD2Ev) #28
  unreachable

28:                                               ; preds = %25
  %29 = landingpad { ptr, i32 }
          cleanup
  br label %common.resume

_ZN6Assimp12StreamReaderILb0ELb0EE5GetI1Ev.exit:  ; preds = %.lr.ph
  %30 = load i8, ptr %21, align 1
  store ptr %22, ptr %4, align 8
  store i8 %30, ptr %.sroa.07.011, align 1
  %31 = getelementptr inbounds nuw i8, ptr %.sroa.07.011, i64 1
  %.not = icmp eq ptr %31, %20
  br i1 %.not, label %._crit_edge, label %.lr.ph
}